; Function Attrs: mustprogress nounwind uwtable
define dso_local void @_ZNK4llvm9symbolize12MarkupFilter15reportTypeErrorENS_9StringRefES2_(ptr noundef nonnull align 8 dereferenceable(464) %0, ptr %1, i64 %2, ptr %3, i64 %4) local_unnamed_addr #0 align 2 {
  %6 = tail call noundef nonnull align 8 dereferenceable(96) ptr @_ZN4llvm4errsEv() #21
  %7 = tail call noundef nonnull align 8 dereferenceable(48) ptr @_ZN4llvm9WithColor5errorERNS_11raw_ostreamENS_9StringRefEb(ptr noundef nonnull align 8 dereferenceable(48) %6, ptr nonnull @.str.1, i64 0, i1 noundef zeroext false) #21
  %8 = getelementptr inbounds nuw i8, ptr %7, i64 24
  %9 = load ptr, ptr %8, align 8
  %10 = getelementptr inbounds nuw i8, ptr %7, i64 32
  %11 = load ptr, ptr %10, align 8
  %12 = ptrtoint ptr %9 to i64
  %13 = ptrtoint ptr %11 to i64
  %14 = sub i64 %12, %13
  %15 = icmp ult i64 %14, 9
  br i1 %15, label %16, label %18

16:                                               ; preds = %5
  %17 = tail call noundef nonnull align 8 dereferenceable(48) ptr @_ZN4llvm11raw_ostream5writeEPKcm(ptr noundef nonnull align 8 dereferenceable(48) %7, ptr noundef nonnull @.str.56, i64 noundef 9) #21
  %.phi.trans.insert = getelementptr inbounds nuw i8, ptr %17, i64 32
  %.pre = load ptr, ptr %.phi.trans.insert, align 8
  br label %_ZN4llvm11raw_ostreamlsEPKc.exit

18:                                               ; preds = %5
  tail call void @llvm.memcpy.p0.p0.i64(ptr noundef nonnull align 1 dereferenceable(9) %11, ptr noundef nonnull align 1 dereferenceable(9) @.str.56, i64 9, i1 false)
  %19 = load ptr, ptr %10, align 8
  %20 = getelementptr inbounds nuw i8, ptr %19, i64 9
  store ptr %20, ptr %10, align 8
  br label %_ZN4llvm11raw_ostreamlsEPKc.exit

_ZN4llvm11raw_ostreamlsEPKc.exit:                 ; preds = %16, %18
  %21 = phi ptr [ %.pre, %16 ], [ %20, %18 ]
  %.0.i.i = phi ptr [ %17, %16 ], [ %7, %18 ]
  %22 = getelementptr inbounds nuw i8, ptr %.0.i.i, i64 24
  %23 = load ptr, ptr %22, align 8
  %24 = getelementptr inbounds nuw i8, ptr %.0.i.i, i64 32
  %25 = ptrtoint ptr %23 to i64
  %26 = ptrtoint ptr %21 to i64
  %27 = sub i64 %25, %26
  %28 = icmp ugt i64 %4, %27
  br i1 %28, label %29, label %31

29:                                               ; preds = %_ZN4llvm11raw_ostreamlsEPKc.exit
  %30 = tail call noundef nonnull align 8 dereferenceable(48) ptr @_ZN4llvm11raw_ostream5writeEPKcm(ptr noundef nonnull align 8 dereferenceable(48) %.0.i.i, ptr noundef %3, i64 noundef %4) #21
  %.phi.trans.insert15 = getelementptr inbounds nuw i8, ptr %30, i64 32
  %.pre16 = load ptr, ptr %.phi.trans.insert15, align 8
  br label %_ZN4llvm11raw_ostreamlsENS_9StringRefE.exit

31:                                               ; preds = %_ZN4llvm11raw_ostreamlsEPKc.exit
  %.not.i = icmp eq i64 %4, 0
  br i1 %.not.i, label %_ZN4llvm11raw_ostreamlsENS_9StringRefE.exit, label %32

32:                                               ; preds = %31
  tail call void @llvm.memcpy.p0.p0.i64(ptr align 1 %21, ptr align 1 %3, i64 %4, i1 false)
  %33 = load ptr, ptr %24, align 8
  %34 = getelementptr inbounds i8, ptr %33, i64 %4
  store ptr %34, ptr %24, align 8
  br label %_ZN4llvm11raw_ostreamlsENS_9StringRefE.exit

_ZN4llvm11raw_ostreamlsENS_9StringRefE.exit:      ; preds = %29, %31, %32
  %35 = phi ptr [ %.pre16, %29 ], [ %34, %32 ], [ %21, %31 ]
  %.0.i = phi ptr [ %30, %29 ], [ %.0.i.i, %32 ], [ %.0.i.i, %31 ]
  %36 = getelementptr inbounds nuw i8, ptr %.0.i, i64 24
  %37 = load ptr, ptr %36, align 8
  %38 = ptrtoint ptr %37 to i64
  %39 = ptrtoint ptr %35 to i64
  %40 = sub i64 %38, %39
  %41 = icmp ult i64 %40, 9
  br i1 %41, label %42, label %44

42:                                               ; preds = %_ZN4llvm11raw_ostreamlsENS_9StringRefE.exit
  %43 = tail call noundef nonnull align 8 dereferenceable(48) ptr @_ZN4llvm11raw_ostream5writeEPKcm(ptr noundef nonnull align 8 dereferenceable(48) %.0.i, ptr noundef nonnull @.str.61, i64 noundef 9) #21
  %.phi.trans.insert17 = getelementptr inbounds nuw i8, ptr %43, i64 32
  %.pre18 = load ptr, ptr %.phi.trans.insert17, align 8
  br label %_ZN4llvm11raw_ostreamlsEPKc.exit7

44:                                               ; preds = %_ZN4llvm11raw_ostreamlsENS_9StringRefE.exit
  %45 = getelementptr inbounds nuw i8, ptr %.0.i, i64 32
  tail call void @llvm.memcpy.p0.p0.i64(ptr noundef nonnull align 1 dereferenceable(9) %35, ptr noundef nonnull align 1 dereferenceable(9) @.str.61, i64 9, i1 false)
  %46 = load ptr, ptr %45, align 8
  %47 = getelementptr inbounds nuw i8, ptr %46, i64 9
  store ptr %47, ptr %45, align 8
  br label %_ZN4llvm11raw_ostreamlsEPKc.exit7

_ZN4llvm11raw_ostreamlsEPKc.exit7:                ; preds = %42, %44
  %48 = phi ptr [ %.pre18, %42 ], [ %47, %44 ]
  %.0.i.i6 = phi ptr [ %43, %42 ], [ %.0.i, %44 ]
  %49 = getelementptr inbounds nuw i8, ptr %.0.i.i6, i64 24
  %50 = load ptr, ptr %49, align 8
  %51 = getelementptr inbounds nuw i8, ptr %.0.i.i6, i64 32
  %52 = ptrtoint ptr %50 to i64
  %53 = ptrtoint ptr %48 to i64
  %54 = sub i64 %52, %53
  %55 = icmp ugt i64 %2, %54
  br i1 %55, label %56, label %58

56:                                               ; preds = %_ZN4llvm11raw_ostreamlsEPKc.exit7
  %57 = tail call noundef nonnull align 8 dereferenceable(48) ptr @_ZN4llvm11raw_ostream5writeEPKcm(ptr noundef nonnull align 8 dereferenceable(48) %.0.i.i6, ptr noundef %1, i64 noundef %2) #21
  %.phi.trans.insert19 = getelementptr inbounds nuw i8, ptr %57, i64 32
  %.pre20 = load ptr, ptr %.phi.trans.insert19, align 8
  br label %_ZN4llvm11raw_ostreamlsENS_9StringRefE.exit10

58:                                               ; preds = %_ZN4llvm11raw_ostreamlsEPKc.exit7
  %.not.i8 = icmp eq i64 %2, 0
  br i1 %.not.i8, label %_ZN4llvm11raw_ostreamlsENS_9StringRefE.exit10, label %59

59:                                               ; preds = %58
  tail call void @llvm.memcpy.p0.p0.i64(ptr align 1 %48, ptr align 1 %1, i64 %2, i1 false)
  %60 = load ptr, ptr %51, align 8
  %61 = getelementptr inbounds i8, ptr %60, i64 %2
  store ptr %61, ptr %51, align 8
  br label %_ZN4llvm11raw_ostreamlsENS_9StringRefE.exit10

_ZN4llvm11raw_ostreamlsENS_9StringRefE.exit10:    ; preds = %56, %58, %59
  %62 = phi ptr [ %.pre20, %56 ], [ %61, %59 ], [ %48, %58 ]
  %.0.i9 = phi ptr [ %57, %56 ], [ %.0.i.i6, %59 ], [ %.0.i.i6, %58 ]
  %63 = getelementptr inbounds nuw i8, ptr %.0.i9, i64 24
  %64 = load ptr, ptr %63, align 8
  %65 = ptrtoint ptr %64 to i64
  %66 = ptrtoint ptr %62 to i64
  %67 = sub i64 %65, %66
  %68 = icmp ult i64 %67, 2
  br i1 %68, label %69, label %71

69:                                               ; preds = %_ZN4llvm11raw_ostreamlsENS_9StringRefE.exit10
  %70 = tail call noundef nonnull align 8 dereferenceable(48) ptr @_ZN4llvm11raw_ostream5writeEPKcm(ptr noundef nonnull align 8 dereferenceable(48) %.0.i9, ptr noundef nonnull @.str.62, i64 noundef 2) #21
  br label %_ZN4llvm11raw_ostreamlsEPKc.exit13

71:                                               ; preds = %_ZN4llvm11raw_ostreamlsENS_9StringRefE.exit10
  %72 = getelementptr inbounds nuw i8, ptr %.0.i9, i64 32
  store i16 2599, ptr %62, align 1
  %73 = load ptr, ptr %72, align 8
  %74 = getelementptr inbounds nuw i8, ptr %73, i64 2
  store ptr %74, ptr %72, align 8
  br label %_ZN4llvm11raw_ostreamlsEPKc.exit13

_ZN4llvm11raw_ostreamlsEPKc.exit13:               ; preds = %69, %71
  tail call void @_ZNK4llvm9symbolize12MarkupFilter14reportLocationEPKc(ptr noundef nonnull align 8 dereferenceable(464) %0, ptr noundef %1)
  ret void
}